; Function Attrs: mustprogress uwtable
define noundef nonnull ptr @Z3_get_full_version() local_unnamed_addr #3 personality ptr @__gxx_personality_v0 {
  %1 = atomicrmw xchg ptr @g_z3_log_enabled, i8 0 seq_cst, align 1
  %2 = trunc i8 %1 to i1
  br i1 %2, label %3, label %_ZN10z3_log_ctxD2Ev.exit1

3:                                                ; preds = %0
  invoke void @_Z23log_Z3_get_full_versionv()
          to label %5 unwind label %_ZN10z3_log_ctxD2Ev.exit

_ZN10z3_log_ctxD2Ev.exit:                         ; preds = %3
  %4 = landingpad { ptr, i32 }
          cleanup
  store atomic i8 1, ptr @g_z3_log_enabled seq_cst, align 1
  resume { ptr, i32 } %4

5:                                                ; preds = %3
  store atomic i8 1, ptr @g_z3_log_enabled seq_cst, align 1
  br label %_ZN10z3_log_ctxD2Ev.exit1

_ZN10z3_log_ctxD2Ev.exit1:                        ; preds = %0, %5
  ret ptr @.str.12
}